; Function Attrs: mustprogress uwtable
define hidden void @_ZNK4cvc58internal9TCtxStack14getCurrentNodeEv(ptr dead_on_unwind noalias writable sret(%"class.cvc5::internal::TCtxNode") align 8 %0, ptr noundef nonnull readonly align 8 captures(none) dereferenceable(40) %1) local_unnamed_addr #4 align 2 personality ptr @__gxx_personality_v0 {
  %3 = alloca %"struct.std::pair", align 8
  %4 = alloca %"class.cvc5::internal::NodeTemplate", align 8
  call void @llvm.lifetime.start.p0(i64 16, ptr nonnull %3) #19
  tail call void @llvm.experimental.noalias.scope.decl(metadata !41)
  %5 = getelementptr inbounds nuw i8, ptr %1, i64 16
  %6 = load ptr, ptr %5, align 8, !tbaa !40, !noalias !41
  %7 = getelementptr inbounds i8, ptr %6, i64 -16
  %8 = load ptr, ptr %7, align 8, !tbaa !16, !noalias !41
  store ptr %8, ptr %3, align 8, !tbaa !16, !alias.scope !41
  %9 = load i64, ptr %8, align 8, !noalias !41
  %10 = lshr i64 %9, 40
  %11 = trunc nuw nsw i64 %10 to i32
  %12 = and i32 %11, 1048575
  %13 = icmp samesign ult i32 %12, 1048574
  br i1 %13, label %14, label %19, !prof !19

14:                                               ; preds = %2
  %15 = add i64 %9, 1099511627776
  %16 = and i64 %15, 1152920405095219200
  %17 = and i64 %9, -1152920405095219201
  %18 = or disjoint i64 %16, %17
  store i64 %18, ptr %8, align 8, !noalias !41
  br label %_ZNK4cvc58internal9TCtxStack10getCurrentEv.exit

19:                                               ; preds = %2
  %20 = icmp eq i32 %12, 1048574
  br i1 %20, label %21, label %_ZNK4cvc58internal9TCtxStack10getCurrentEv.exit, !prof !20

21:                                               ; preds = %19
  %22 = or i64 %9, 1152920405095219200
  store i64 %22, ptr %8, align 8, !noalias !41
  tail call void @_ZN4cvc58internal4expr9NodeValue20markRefCountMaxedOutEv(ptr noundef nonnull align 8 dereferenceable(24) %8), !noalias !41
  %.pre = load i64, ptr %8, align 8
  br label %_ZNK4cvc58internal9TCtxStack10getCurrentEv.exit

_ZNK4cvc58internal9TCtxStack10getCurrentEv.exit:  ; preds = %14, %19, %21
  %23 = phi i64 [ %18, %14 ], [ %9, %19 ], [ %.pre, %21 ]
  %24 = getelementptr inbounds nuw i8, ptr %3, i64 8
  %25 = getelementptr inbounds i8, ptr %6, i64 -8
  %26 = load i32, ptr %25, align 8, !tbaa !21, !noalias !41
  store i32 %26, ptr %24, align 8, !tbaa !21, !alias.scope !41
  store ptr %8, ptr %4, align 8, !tbaa !16
  %27 = lshr i64 %23, 40
  %28 = trunc nuw nsw i64 %27 to i32
  %29 = and i32 %28, 1048575
  %30 = icmp samesign ult i32 %29, 1048574
  br i1 %30, label %31, label %36, !prof !19

31:                                               ; preds = %_ZNK4cvc58internal9TCtxStack10getCurrentEv.exit
  %32 = add i64 %23, 1099511627776
  %33 = and i64 %32, 1152920405095219200
  %34 = and i64 %23, -1152920405095219201
  %35 = or disjoint i64 %33, %34
  store i64 %35, ptr %8, align 8
  br label %_ZN4cvc58internal12NodeTemplateILb1EEC2ERKS2_.exit

36:                                               ; preds = %_ZNK4cvc58internal9TCtxStack10getCurrentEv.exit
  %37 = icmp eq i32 %29, 1048574
  br i1 %37, label %38, label %_ZN4cvc58internal12NodeTemplateILb1EEC2ERKS2_.exit, !prof !20

38:                                               ; preds = %36
  %39 = or i64 %23, 1152920405095219200
  store i64 %39, ptr %8, align 8
  invoke void @_ZN4cvc58internal4expr9NodeValue20markRefCountMaxedOutEv(ptr noundef nonnull align 8 dereferenceable(24) %8)
          to label %_ZN4cvc58internal12NodeTemplateILb1EEC2ERKS2_.exit unwind label %68

_ZN4cvc58internal12NodeTemplateILb1EEC2ERKS2_.exit: ; preds = %36, %31, %38
  %40 = getelementptr inbounds nuw i8, ptr %1, i64 32
  %41 = load ptr, ptr %40, align 8, !tbaa !6
  invoke void @_ZN4cvc58internal8TCtxNodeC1ENS0_12NodeTemplateILb1EEEjPKNS0_11TermContextE(ptr noundef nonnull align 8 dereferenceable(24) %0, ptr noundef nonnull %4, i32 noundef %26, ptr noundef %41)
          to label %42 unwind label %70

42:                                               ; preds = %_ZN4cvc58internal12NodeTemplateILb1EEC2ERKS2_.exit
  %43 = load ptr, ptr %4, align 8, !tbaa !16
  %44 = load i64, ptr %43, align 8
  %45 = and i64 %44, 1152920405095219200
  %.not.i.i = icmp eq i64 %45, 1152920405095219200
  br i1 %.not.i.i, label %_ZN4cvc58internal12NodeTemplateILb1EED2Ev.exit, label %46, !prof !20

46:                                               ; preds = %42
  %47 = add i64 %44, 1152920405095219200
  %48 = and i64 %47, 1152920405095219200
  %49 = and i64 %44, -1152920405095219201
  %50 = or disjoint i64 %48, %49
  store i64 %50, ptr %43, align 8
  %51 = icmp eq i64 %48, 0
  br i1 %51, label %52, label %_ZN4cvc58internal12NodeTemplateILb1EED2Ev.exit, !prof !20

52:                                               ; preds = %46
  invoke void @_ZN4cvc58internal4expr9NodeValue15markForDeletionEv(ptr noundef nonnull align 8 dereferenceable(24) %43)
          to label %_ZN4cvc58internal12NodeTemplateILb1EED2Ev.exit unwind label %53

53:                                               ; preds = %52
  %54 = landingpad { ptr, i32 }
          catch ptr null
  %55 = extractvalue { ptr, i32 } %54, 0
  call void @__clang_call_terminate(ptr %55) #20
  unreachable

_ZN4cvc58internal12NodeTemplateILb1EED2Ev.exit:   ; preds = %42, %46, %52
  %56 = load i64, ptr %8, align 8
  %57 = and i64 %56, 1152920405095219200
  %.not.i.i.i = icmp eq i64 %57, 1152920405095219200
  br i1 %.not.i.i.i, label %_ZNSt4pairIN4cvc58internal12NodeTemplateILb1EEEjED2Ev.exit, label %58, !prof !20

58:                                               ; preds = %_ZN4cvc58internal12NodeTemplateILb1EED2Ev.exit
  %59 = add i64 %56, 1152920405095219200
  %60 = and i64 %59, 1152920405095219200
  %61 = and i64 %56, -1152920405095219201
  %62 = or disjoint i64 %60, %61
  store i64 %62, ptr %8, align 8
  %63 = icmp eq i64 %60, 0
  br i1 %63, label %64, label %_ZNSt4pairIN4cvc58internal12NodeTemplateILb1EEEjED2Ev.exit, !prof !20

64:                                               ; preds = %58
  invoke void @_ZN4cvc58internal4expr9NodeValue15markForDeletionEv(ptr noundef nonnull align 8 dereferenceable(24) %8)
          to label %_ZNSt4pairIN4cvc58internal12NodeTemplateILb1EEEjED2Ev.exit unwind label %65

65:                                               ; preds = %64
  %66 = landingpad { ptr, i32 }
          catch ptr null
  %67 = extractvalue { ptr, i32 } %66, 0
  call void @__clang_call_terminate(ptr %67) #20
  unreachable

_ZNSt4pairIN4cvc58internal12NodeTemplateILb1EEEjED2Ev.exit: ; preds = %_ZN4cvc58internal12NodeTemplateILb1EED2Ev.exit, %58, %64
  call void @llvm.lifetime.end.p0(i64 16, ptr nonnull %3) #19
  ret void

68:                                               ; preds = %38
  %69 = landingpad { ptr, i32 }
          cleanup
  br label %72

70:                                               ; preds = %_ZN4cvc58internal12NodeTemplateILb1EEC2ERKS2_.exit
  %71 = landingpad { ptr, i32 }
          cleanup
  call void @_ZN4cvc58internal12NodeTemplateILb1EED2Ev(ptr noundef nonnull align 8 dereferenceable(8) %4) #19
  br label %72

72:                                               ; preds = %70, %68
  %.pn = phi { ptr, i32 } [ %71, %70 ], [ %69, %68 ]
  call void @_ZNSt4pairIN4cvc58internal12NodeTemplateILb1EEEjED2Ev(ptr noundef nonnull align 8 dereferenceable(12) %3) #19
  call void @llvm.lifetime.end.p0(i64 16, ptr nonnull %3) #19
  resume { ptr, i32 } %.pn
}